target datalayout = "e-m:e-p270:32:32-p271:32:32-p272:64:64-i64:64-i128:128-f80:128-n8:16:32:64-S128"
target triple = "x86_64-pc-linux-gnu"

%"class.zmq::dist_t" = type <{ %"class.zmq::array_t", i64, i64, i64, i8, [7 x i8] }>
%"class.zmq::array_t" = type { %"class.std::vector" }
%"class.std::vector" = type { %"struct.std::_Vector_base" }
%"struct.std::_Vector_base" = type { %"struct.std::_Vector_base<zmq::pipe_t *, std::allocator<zmq::pipe_t *>>::_Vector_impl" }
%"struct.std::_Vector_base<zmq::pipe_t *, std::allocator<zmq::pipe_t *>>::_Vector_impl" = type { %"struct.std::_Vector_base<zmq::pipe_t *, std::allocator<zmq::pipe_t *>>::_Vector_impl_data" }
%"struct.std::_Vector_base<zmq::pipe_t *, std::allocator<zmq::pipe_t *>>::_Vector_impl_data" = type { ptr, ptr, ptr }

; Function Attrs: mustprogress uwtable
define noundef i32 @_ZN3zmq6dist_t16send_to_matchingEPNS_5msg_tE(ptr noundef nonnull align 8 dereferenceable(49) %0, ptr noundef %1) #6 align 2 {
  %3 = alloca ptr, align 8
  %4 = alloca ptr, align 8
  %5 = alloca i8, align 1
  store ptr %0, ptr %3, align 8, !tbaa !3
  store ptr %1, ptr %4, align 8, !tbaa !33
  %6 = load ptr, ptr %3, align 8
  call void @llvm.lifetime.start.p0(i64 1, ptr %5) #14
  %7 = load ptr, ptr %4, align 8, !tbaa !33
  %8 = call noundef zeroext i8 @_ZNK3zmq5msg_t5flagsEv(ptr noundef nonnull align 8 dereferenceable(64) %7)
  %9 = zext i8 %8 to i32
  %10 = and i32 %9, 1
  %11 = icmp ne i32 %10, 0
  %12 = zext i1 %11 to i8
  store i8 %12, ptr %5, align 1, !tbaa !35
  %13 = load ptr, ptr %4, align 8, !tbaa !33
  call void @_ZN3zmq6dist_t10distributeEPNS_5msg_tE(ptr noundef nonnull align 8 dereferenceable(49) %6, ptr noundef %13)
  %14 = load i8, ptr %5, align 1, !tbaa !35, !range !28, !noundef !29
  %15 = trunc i8 %14 to i1
  br i1 %15, label %20, label %16

16:                                               ; preds = %2
  %17 = getelementptr inbounds nuw %"class.zmq::dist_t", ptr %6, i32 0, i32 3
  %18 = load i64, ptr %17, align 8, !tbaa !20
  %19 = getelementptr inbounds nuw %"class.zmq::dist_t", ptr %6, i32 0, i32 2
  store i64 %18, ptr %19, align 8, !tbaa !19
  br label %20

20:                                               ; preds = %16, %2
  %21 = load i8, ptr %5, align 1, !tbaa !35, !range !28, !noundef !29
  %22 = trunc i8 %21 to i1
  %23 = getelementptr inbounds nuw %"class.zmq::dist_t", ptr %6, i32 0, i32 4
  %24 = zext i1 %22 to i8
  store i8 %24, ptr %23, align 8, !tbaa !21
  call void @llvm.lifetime.end.p0(i64 1, ptr %5) #14
  ret i32 0
}