; Function Attrs: mustprogress uwtable
define noundef i32 @_ZN3zmq6dist_t16send_to_matchingEPNS_5msg_tE(ptr noundef nonnull align 8 captures(none) dereferenceable(49) %0, ptr noundef nonnull %1) local_unnamed_addr #6 align 2 {
  %3 = tail call noundef zeroext i8 @_ZNK3zmq5msg_t5flagsEv(ptr noundef nonnull align 8 dereferenceable(64) %1)
  %4 = and i8 %3, 1
  %.not = icmp eq i8 %4, 0
  tail call void @_ZN3zmq6dist_t10distributeEPNS_5msg_tE(ptr noundef nonnull align 8 dereferenceable(49) %0, ptr noundef nonnull %1)
  br i1 %.not, label %5, label %9

5:                                                ; preds = %2
  %6 = getelementptr inbounds nuw i8, ptr %0, i64 40
  %7 = load i64, ptr %6, align 8, !tbaa !31
  %8 = getelementptr inbounds nuw i8, ptr %0, i64 32
  store i64 %7, ptr %8, align 8, !tbaa !32
  br label %9

9:                                                ; preds = %5, %2
  %10 = getelementptr inbounds nuw i8, ptr %0, i64 48
  store i8 %4, ptr %10, align 8, !tbaa !14
  ret i32 0
}